(dp0
S'code'
p1
S'fr_FR'
p2
sS'find_and_replace'
p3
S'fr_FR'
p4
sS'print_preview_markdown'
p5
S'fr_FR'
p6
sS'save_all'
p7
S'fr_FR'
p8
sS'redo'
p9
S'fr_FR'
p10
sS'bold'
p11
S'fr_FR'
p12
sS'save_as'
p13
S'fr_FR'
p14
sS'embed_image'
p15
S'fr_FR'
p16
sS'cut'
p17
S'fr_FR'
p18
sS'print_rendered_html'
p19
S'fr_FR'
p20
sS'select_all'
p21
S'fr_FR'
p22
sS'open_file'
p23
S'fr_FR'
p24
sS'new_file'
p25
S'fr_FR'
p26
sS'link_image'
p27
S'fr_FR'
p28
sS'italic'
p29
S'fr_FR'
p30
sS'show_log_file_location'
p31
S'fr_FR'
p32
sS'print_menu'
p33
S'fr_FR'
p34
sS'choose_colour'
p35
S'fr_FR'
p36
sS'configure'
p37
S'fr_FR'
p38
sS'print_preview_raw_html'
p39
S'fr_FR'
p40
sS'image_menu'
p41
S'fr_FR'
p42
sS'undo'
p43
S'fr_FR'
p44
sS'export_pdf'
p45
S'fr_FR'
p46
sS'link'
p47
S'fr_FR'
p48
sS'copy'
p49
S'fr_FR'
p50
sS'paste'
p51
S'fr_FR'
p52
sS'set_colour'
p53
S'fr_FR'
p54
sS'help_link'
p55
S'fr_FR'
p56
sS'close_file'
p57
S'fr_FR'
p58
sS'save_file'
p59
S'fr_FR'
p60
sS'print_preview_rendered_html'
p61
S'fr_FR'
p62
sS'print_raw_html'
p63
S'fr_FR'
p64
sS'export_html'
p65
S'fr_FR'
p66
sS'print_markdown'
p67
S'fr_FR'
p68
s.