(dp0
S'code'
p1
S'de_DE'
p2
sS'find_and_replace'
p3
S'de_DE'
p4
sS'other_options'
p5
S'de_DE'
p6
sS'print_preview_markdown'
p7
S'de_DE'
p8
sS'update_available'
p9
S'de_DE'
p10
sS'saved'
p11
S'de_DE'
p12
sS'find'
p13
S'de_DE'
p14
sS'cut'
p15
S'de_DE'
p16
sS'print_rendered_html'
p17
S'de_DE'
p18
sS'search_backwards'
p19
S'de_DE'
p20
sS'current_document'
p21
S'de_DE'
p22
sS'enter_link'
p23
S'de_DE'
p24
sS'made_changes'
p25
S'de_DE'
p26
sS'image_files_error_detail'
p27
S'de_DE'
p28
sS'restart'
p29
S'de_DE'
p30
sS'add_to_dictionary'
p31
S'de_DE'
p32
sS'print_preview_rendered_html'
p33
S'de_DE'
p34
sS'print_raw_html'
p35
S'de_DE'
p36
sS'css'
p37
S'de_DE'
p38
sS'replace_all'
p39
S'de_DE'
p40
sS'tools_menu'
p41
S'de_DE'
p42
sS'file_argument'
p43
S'de_DE'
p44
sS'markdown_all'
p45
S'de_DE'
p46
sS'close'
p47
S'de_DE'
p48
sS'show_line_numbers'
p49
S'de_DE'
p50
sS'replace_title'
p51
S'de_DE'
p52
sS'embed_image'
p53
S'de_DE'
p54
sS'format_toolbar'
p55
S'de_DE'
p56
sS'open_file'
p57
S'de_DE'
p58
sS'restart_effect'
p59
S'de_DE'
p60
sS'replace_with'
p61
S'de_DE'
p62
sS'style_name'
p63
S'de_DE'
p64
sS'print'
p65
S'de_DE'
p66
sS'file_toolbar'
p67
S'de_DE'
p68
sS'new_file'
p69
S'de_DE'
p70
sS'reset_user_conf_help'
p71
S'de_DE'
p72
sS'change_font'
p73
S'de_DE'
p74
sS'undo'
p75
S'de_DE'
p76
sS'find_what'
p77
S'de_DE'
p78
sS'github_flavoured_markdown'
p79
S'de_DE'
p80
sS'program_name'
p81
S'de_DE'
p82
sS'paste'
p83
S'de_DE'
p84
sS'find_title'
p85
S'de_DE'
p86
sS'save_file'
p87
S'de_DE'
p88
sS'edit_menu'
p89
S'de_DE'
p90
sS'program_description'
p91
S'de_DE'
p92
sS'options'
p93
S'de_DE'
p94
sS'debug_options'
p95
S'de_DE'
p96
sS'display_options'
p97
S'de_DE'
p98
sS'markdown'
p99
S'de_DE'
p100
sS'misc'
p101
S'de_DE'
p102
sS'replace'
p103
S'de_DE'
p104
sS'match_case'
p105
S'de_DE'
p106
sS'redo'
p107
S'de_DE'
p108
sS'save_as'
p109
S'de_DE'
p110
sS'link_image'
p111
S'de_DE'
p112
sS'file_menu'
p113
S'de_DE'
p114
sS'undo_redo_toolbar'
p115
S'de_DE'
p116
sS'markdown_type'
p117
S'de_DE'
p118
sS'insert_link'
p119
S'de_DE'
p120
sS'preview'
p121
S'de_DE'
p122
sS'code_css_class'
p123
S'de_DE'
p124
sS'markdown_extra'
p125
S'de_DE'
p126
sS'image_files_error'
p127
S'de_DE'
p128
sS'codehilite'
p129
S'de_DE'
p130
sS'copy'
p131
S'de_DE'
p132
sS'exception'
p133
S'de_DE'
p134
sS'help_link'
p135
S'de_DE'
p136
sS'close_file'
p137
S'de_DE'
p138
sS'enter_image_title'
p139
S'de_DE'
p140
sS'export_html'
p141
S'de_DE'
p142
sS'show_html'
p143
S'de_DE'
p144
sS'file_not_found'
p145
S'de_DE'
p146
sS'browse_for_image'
p147
S'de_DE'
p148
sS'save_all'
p149
S'de_DE'
p150
sS'edit_toolbar'
p151
S'de_DE'
p152
sS'save_changes?'
p153
S'de_DE'
p154
sS'export_pdf'
p155
S'de_DE'
p156
sS'update_message'
p157
S'de_DE'
p158
sS'select_all'
p159
S'de_DE'
p160
sS'match_whole_words'
p161
S'de_DE'
p162
sS'help_menu'
p163
S'de_DE'
p164
sS'log_file_location'
p165
S'de_DE'
p166
sS'enter_image_location'
p167
S'de_DE'
p168
sS'change_language'
p169
S'de_DE'
p170
sS'print_preview_raw_html'
p171
S'de_DE'
p172
sS'logging_file_location'
p173
S'de_DE'
p174
sS'print_markdown'
p175
S'de_DE'
p176
sS'set_locale'
p177
S'de_DE'
p178
s.