(dp0
S'code'
p1
S'en_AU'
p2
sS'find_and_replace'
p3
S'en_AU'
p4
sS'other_options'
p5
S'en_AU'
p6
sS'print_preview_markdown'
p7
S'en_AU'
p8
sS'saved'
p9
S'en_AU'
p10
sS'file_not_created'
p11
S'en_AU'
p12
sS'cut'
p13
S'en_AU'
p14
sS'print_rendered_html'
p15
S'en_AU'
p16
sS'search_backwards'
p17
S'en_AU'
p18
sS'current_document'
p19
S'en_AU'
p20
sS'create_file_option'
p21
S'en_AU'
p22
sS'enter_link'
p23
S'en_AU'
p24
sS'made_changes'
p25
S'en_AU'
p26
sS'image_files_error_detail'
p27
S'en_AU'
p28
sS'add_to_dictionary'
p29
S'en_AU'
p30
sS'set_font'
p31
S'en_AU'
p32
sS'print_preview_rendered_html'
p33
S'en_AU'
p34
sS'print_raw_html'
p35
S'en_AU'
p36
sS'css'
p37
S'en_AU'
p38
sS'replace_all'
p39
S'en_AU'
p40
sS'tools_menu'
p41
S'en_AU'
p42
sS'file_argument'
p43
S'en_AU'
p44
sS'markdown_all'
p45
S'en_AU'
p46
sS'close'
p47
S'en_AU'
p48
sS'show_line_numbers'
p49
S'en_AU'
p50
sS'replace_title'
p51
S'en_AU'
p52
sS'embed_image'
p53
S'en_AU'
p54
sS'format_toolbar'
p55
S'en_AU'
p56
sS'open_file'
p57
S'en_AU'
p58
sS'replace_with'
p59
S'en_AU'
p60
sS'style_name'
p61
S'en_AU'
p62
sS'print'
p63
S'en_AU'
p64
sS'file_toolbar'
p65
S'en_AU'
p66
sS'new_file'
p67
S'en_AU'
p68
sS'reset_user_conf_help'
p69
S'en_AU'
p70
sS'change_font'
p71
S'en_AU'
p72
sS'undo'
p73
S'en_AU'
p74
sS'find_what'
p75
S'en_AU'
p76
sS'github_flavoured_markdown'
p77
S'en_AU'
p78
sS'program_name'
p79
S'en_AU'
p80
sS'paste'
p81
S'en_AU'
p82
sS'find_title'
p83
S'en_AU'
p84
sS'save_file'
p85
S'en_AU'
p86
sS'edit_menu'
p87
S'en_AU'
p88
sS'program_description'
p89
S'en_AU'
p90
sS'print_markdown'
p91
S'en_AU'
p92
sS'debug_options'
p93
S'en_AU'
p94
sS'display_options'
p95
S'en_AU'
p96
sS'markdown'
p97
S'en_AU'
p98
sS'misc'
p99
S'en_AU'
p100
sS'replace'
p101
S'en_AU'
p102
sS'match_case'
p103
S'en_AU'
p104
sS'redo'
p105
S'en_AU'
p106
sS'save_as'
p107
S'en_AU'
p108
sS'link_image'
p109
S'en_AU'
p110
sS'file_menu'
p111
S'en_AU'
p112
sS'undo_redo_toolbar'
p113
S'en_AU'
p114
sS'markdown_type'
p115
S'en_AU'
p116
sS'insert_link'
p117
S'en_AU'
p118
sS'preview'
p119
S'en_AU'
p120
sS'code_css_class'
p121
S'en_AU'
p122
sS'markdown_extra'
p123
S'en_AU'
p124
sS'image_files_error'
p125
S'en_AU'
p126
sS'codehilite'
p127
S'en_AU'
p128
sS'copy'
p129
S'en_AU'
p130
sS'user_interface_import_fail'
p131
S'en_AU'
p132
sS'exception'
p133
S'en_AU'
p134
sS'help_link'
p135
S'en_AU'
p136
sS'close_file'
p137
S'en_AU'
p138
sS'enter_image_title'
p139
S'en_AU'
p140
sS'export_html'
p141
S'en_AU'
p142
sS'show_html'
p143
S'en_AU'
p144
sS'file_not_found'
p145
S'en_AU'
p146
sS'browse_for_image'
p147
S'en_AU'
p148
sS'save_all'
p149
S'en_AU'
p150
sS'edit_toolbar'
p151
S'en_AU'
p152
sS'save_changes?'
p153
S'en_AU'
p154
sS'export_pdf'
p155
S'en_AU'
p156
sS'update_message'
p157
S'en_AU'
p158
sS'select_all'
p159
S'en_AU'
p160
sS'match_whole_words'
p161
S'en_AU'
p162
sS'help_menu'
p163
S'en_AU'
p164
sS'find'
p165
S'en_AU'
p166
sS'log_file_location'
p167
S'en_AU'
p168
sS'enter_image_location'
p169
S'en_AU'
p170
sS'image_location'
p171
S'en_AU'
p172
sS'print_preview_raw_html'
p173
S'en_AU'
p174
sS'logging_file_location'
p175
S'en_AU'
p176
sS'options'
p177
S'en_AU'
p178
s.