(dp0
Vdisplay_line_numbers
p1
I01
sVcode_css_class
p2
Vhighlight
p3
sVcode_css
p4
VStandard
p5
sVmarkdown_css
p6
VMarkdown
p7
sVfont
p8
VArial,12,-1,5,50,0,0,0,0,0
p9
sVshow_html
p10
I00
sVprocessor
p11
Vmarkdown_all
p12
s.