(dp0
Vfont
p1
VArial,12,-1,5,50,0,0,0,0,0
p2
sVlanguage
p3
Ven_GB
p4
sVcode_css
p5
VStandard
p6
sVdisplay_line_numbers
p7
I00
sVshow_html
p8
I00
sVmarkdown_css
p9
VMarkdown
p10
sVcode_css_class
p11
Vhighlight
p12
sVprocessor
p13
Vmarkdown_all
p14
s.