(dp0
Vcode
p1
VSurround the highlighted area with code blocks (```)
p2
sVbold
p3
VSurround the highlighted area with strong emphasis (__)
p4
sVfind_and_replace
p5
VRaise the find and replace window
p6
sVnew_file
p7
VStart a new document
p8
sVimage_menu
p9
VOpens a list of image options
p10
sVundo
p11
VUndo the previous change
p12
sVsave_all
p13
VSave all open documents
p14
sVexport_pdf
p15
VExport the current document as a pdf file
p16
sVlink
p17
VInsert a link with the link text of the surrounded area
p18
sVprint_preview_markdown
p19
VShows a preview of the markdown before printing
p20
sVprint_preview_raw_html
p21
VShows a preview of the raw HTML code output before printing
p22
sVhelp_link
p23
VOpens the website for this product in your defualt browser
p24
sVcopy
p25
VCopy the highlighted area to the clipboard
p26
sVpaste
p27
VPaste from the clipboard to the current cursor location
p28
sVset_colour
p29
VSet the colour of the highlighted area to this colour
p30
sVconfigure
p31
VConfigure the program
p32
sVsave_as
p33
VSave the current document with a specified name
p34
sVembed_image
p35
VEmbed a given image as bytes
p36
sVcut
p37
VCut the highlighted area to the clipboard
p38
sVprint_rendered_html
p39
VPrints the HTML output as it will be rendered by a browser
p40
sVselect_all
p41
VSelect all the text in the current document
p42
sVclose_file
p43
VClose the currently open document
p44
sVopen_file
p45
VOpen an existing document
p46
sVredo
p47
VRedo the previous undo
p48
sVprint_preview_rendered_html
p49
VShows a preview of the HTML output as it will be rendered by a browser before printing
p50
sVlink_image
p51
VLink to an image with the title of the surrounded area
p52
sVprint_raw_html
p53
VPrints the raw HTML code output
p54
sVitalic
p55
VSurround the highlighted area with emphasis (_)
p56
sVsave_file
p57
VSave the current document
p58
sVexport_html
p59
VExport the current document as html
p60
sVprint_menu
p61
VOpens the printing menu
p62
sVprint_markdown
p63
VPrints the markdown document
p64
sVchoose_colour
p65
VRaise a colour chooser dialog
p66
s.