(dp0
Vcode
p1
VSurround the highlighted area with code blocks (```)
p2
sVbold
p3
VSurround the highlighted area with strong emphasis (__)
p4
sVfind_and_replace
p5
VRaise the find and replace window
p6
sVnew_file
p7
VStart a new document
p8
sVimage_menu
p9
VOpens a list of image options
p10
sVshow_log_file_location
p11
VShow the loction of the log file.
p12
sVundo
p13
VUndo the previous change
p14
sVsave_all
p15
VSave all open documents
p16
sVexport_pdf
p17
VExport the current document as a pdf file
p18
sVlink
p19
VInsert a link with the link text of the surrounded area
p20
sVprint_preview_markdown
p21
VShows a preview of the markdown before printing
p22
sVprint_preview_raw_html
p23
VShows a preview of the raw HTML code output before printing
p24
sVhelp_link
p25
VOpens the website for this product in your defualt browser
p26
sVcopy
p27
VCopy the highlighted area to the clipboard
p28
sVpaste
p29
VPaste from the clipboard to the current cursor location
p30
sVset_colour
p31
VSet the colour of the highlighted area to this colour
p32
sVconfigure
p33
VConfigure the program
p34
sVsave_as
p35
VSave the current document with a specified name
p36
sVembed_image
p37
VEmbed a given image as bytes
p38
sVcut
p39
VCut the highlighted area to the clipboard
p40
sVprint_rendered_html
p41
VPrints the HTML output as it will be rendered by a browser
p42
sVselect_all
p43
VSelect all the text in the current document
p44
sVclose_file
p45
VClose the currently open document
p46
sVopen_file
p47
VOpen an existing document
p48
sVredo
p49
VRedo the previous undo
p50
sVprint_preview_rendered_html
p51
VShows a preview of the HTML output as it will be rendered by a browser before printing
p52
sVlink_image
p53
VLink to an image with the title of the surrounded area
p54
sVprint_raw_html
p55
VPrints the raw HTML code output
p56
sVitalic
p57
VSurround the highlighted area with emphasis (_)
p58
sVsave_file
p59
VSave the current document
p60
sVexport_html
p61
VExport the current document as html
p62
sVprint_menu
p63
VOpens the printing menu
p64
sVprint_markdown
p65
VPrints the markdown document
p66
sVchoose_colour
p67
VRaise a colour chooser dialog
p68
s.