(dp0
Vdisplay_options
p1
VDisplay
p2
sVmarkdown
p3
VMarkdown
p4
sVfind_and_replace
p5
VFind and Replace
p6
sVerror_text_was
p7
VThe text from it was:
p8
sVbrowse_for_image
p9
VBrowse for image
p10
sVprint_preview_markdown
p11
VPrint Preview Markdown
p12
sVreplace
p13
V&Replace
p14
sVmatch_case
p15
VMatch &case
p16
sVhelp_menu
p17
V&Help
p18
sVcode
p19
VCode
p20
sVmarkdown_all
p21
VMarkdown All
p22
sVedit_toolbar
p23
VEdit Toolbar
p24
sVclose
p25
VClose
p26
sVshow_line_numbers
p27
VDisplay Line Numbers
p28
sVredo
p29
VRedo
p30
sVfind
p31
V&Find
p32
sVreplace_title
p33
VReplace
p34
sVsave_as
p35
VSave As
p36
sVformat_toolbar
p37
VFormat Toolbar
p38
sVprint_rendered_html
p39
VPrint Rendered HTML
p40
sVselect_all
p41
VSelect All
p42
sVopen_file
p43
VOpen File
p44
sVsaved
p45
VFile saved
p46
sVsearch_backwards
p47
VSearch &backwards
p48
sVmatch_whole_words
p49
VMatch &whole words
p50
sVfile_menu
p51
V&File
p52
sVreplace_with
p53
VReplace with:
p54
sVundo_redo_toolbar
p55
VUndo Redo Toolbar
p56
sVcurrent_document
p57
Vthe current document
p58
sVmarkdown_type
p59
VMarkdown Type
p60
sVstyle_name
p61
VStyle Name
p62
sVprint
p63
VPrint
p64
sVinsert_link
p65
VInsert Link
p66
sVpreview
p67
VPreview
p68
sVenter_image_location
p69
VEnter the image location
p70
sVenter_link
p71
VEnter the destination URL
p72
sVfile_toolbar
p73
VFile Toolbar
p74
sVchange_font
p75
VChange Editor Font
p76
sVsave_all
p77
VSave All Files
p78
sVmade_changes
p79
VYou have made changes to
p80
sVmarkdown_extra
p81
VMarkdown Extra
p82
sVnew_file
p83
VNew File
p84
sVmisc
p85
VMiscellaneous
p86
sVsave_changes?
p87
VDo you want to save your changes?
p88
sVexport_pdf
p89
VExport PDF
p90
sVundo
p91
VUndo
p92
sVcodehilite
p93
VCodeHilite
p94
sVcut
p95
VCut
p96
sVother_options
p97
VOther Options
p98
sVfind_what
p99
VFind &what:
p100
sVgithub_flavoured_markdown
p101
VGithub Flavoured Markdown
p102
sVprint_preview_raw_html
p103
VPrint Preview Raw HTML Code
p104
sVprogram_name
p105
VMarkdownEditor
p106
sVcopy
p107
VCopy
p108
sVpaste
p109
VPaste
p110
sVset_font
p111
VSet Font
p112
sVexception
p113
VAn internal error has occured.
p114
sVfind_title
p115
VFind
p116
sVhelp_link
p117
VMarkdown Editor On The Web
p118
sVclose_file
p119
VClose File
p120
sVsave_file
p121
VSave
p122
sVenter_image_title
p123
VEnter the image title (optional)
p124
sVedit_menu
p125
V&Edit
p126
sVinsert_image
p127
VInsert Image
p128
sVprint_markdown
p129
VPrint Markdown
p130
sVprint_preview_rendered_html
p131
VPrint Preview Rendered HTML
p132
sVprint_raw_html
p133
VPrint Raw HTML Code
p134
sVcss
p135
VCSS
p136
sVreplace_all
p137
VReplace &all
p138
sVexport_html
p139
VExport HTML
p140
sVtools_menu
p141
V&Tools
p142
sVshow_html
p143
VShow HTML
p144
sVoptions
p145
VOptions
p146
sVdebug_options
p147
VDebug Options
p148
s.