(dp0
Vmarkdown
p1
VMarkdown
p2
sVfind_and_replace
p3
VFind and Replace
p4
sVerror_text_was
p5
VThe text from it was:
p6
sVbrowse_for_image
p7
VBrowse for image
p8
sVprint_preview_markdown
p9
VPrint Preview Markdown
p10
sVreplace
p11
V&Replace
p12
sVmatch_case
p13
VMatch &case
p14
sVcode
p15
VCode
p16
sVmarkdown_all
p17
VMarkdown All
p18
sVedit_toolbar
p19
VEdit Toolbar
p20
sVclose
p21
VClose
p22
sVshow_line_numbers
p23
VDisplay Line Numbers
p24
sVredo
p25
VRedo
p26
sVfind
p27
V&Find
p28
sVreplace_title
p29
VReplace
p30
sVsave_as
p31
VSave As
p32
sVformat_toolbar
p33
VFormat Toolbar
p34
sVprint_rendered_html
p35
VPrint Rendered HTML
p36
sVselect_all
p37
VSelect All
p38
sVopen_file
p39
VOpen File
p40
sVsaved
p41
VFile saved
p42
sVsearch_backwards
p43
VSearch &backwards
p44
sVmatch_whole_words
p45
VMatch &whole words
p46
sVfile_menu
p47
V&File
p48
sVreplace_with
p49
VReplace with:
p50
sVundo_redo_toolbar
p51
VUndo Redo Toolbar
p52
sVcurrent_document
p53
Vthe current document
p54
sVmarkdown_type
p55
VMarkdown Type
p56
sVstyle_name
p57
VStyle Name
p58
sVprint
p59
VPrint
p60
sVinsert_link
p61
VInsert Link
p62
sVpreview
p63
VPreview
p64
sVenter_image_location
p65
VEnter the image location
p66
sVenter_link
p67
VEnter the destination URL
p68
sVfile_toolbar
p69
VFile Toolbar
p70
sVsave_all
p71
VSave All Files
p72
sVmade_changes
p73
VYou have made changes to
p74
sVmarkdown_extra
p75
VMarkdown Extra
p76
sVnew_file
p77
VNew File
p78
sVmisc
p79
VMiscellaneous
p80
sVsave_changes?
p81
VDo you want to save your changes?
p82
sVexport_pdf
p83
VExport PDF
p84
sVundo
p85
VUndo
p86
sVcodehilite
p87
VCodeHilite
p88
sVcut
p89
VCut
p90
sVother_options
p91
VOther Options
p92
sVfind_what
p93
VFind &what:
p94
sVgithub_flavoured_markdown
p95
VGithub Flavoured Markdown
p96
sVprint_preview_raw_html
p97
VPrint Preview Raw HTML Code
p98
sVprogram_name
p99
VMarkdownEditor
p100
sVcopy
p101
VCopy
p102
sVpaste
p103
VPaste
p104
sVexception
p105
VAn internal error has occured.
p106
sVfind_title
p107
VFind
p108
sVclose_file
p109
VClose File
p110
sVsave_file
p111
VSave
p112
sVenter_image_title
p113
VEnter the image title (optional)
p114
sVedit_menu
p115
V&Edit
p116
sVinsert_image
p117
VInsert Image
p118
sVprint_markdown
p119
VPrint Markdown
p120
sVprint_preview_rendered_html
p121
VPrint Preview Rendered HTML
p122
sVprint_raw_html
p123
VPrint Raw HTML Code
p124
sVcss
p125
VCSS
p126
sVreplace_all
p127
VReplace &all
p128
sVexport_html
p129
VExport HTML
p130
sVtools_menu
p131
V&Tools
p132
sVshow_html
p133
VShow HTML
p134
sVoptions
p135
VOptions
p136
sVdebug_options
p137
VDebug Options
p138
s.