(dp0
Vupdate_available
p1
VUpdate Available
p2
sVfind_and_replace
p3
VFind and Replace
p4
sVfile_not_created
p5
VFile %s could not be created.
p6
sVprint_preview_markdown
p7
VPrint Preview Markdown
p8
sVcode
p9
VCode
p10
sVsaved
p11
VFile saved
p12
sVfind
p13
V&Find
p14
sVcut
p15
VCut
p16
sVprint_rendered_html
p17
VPrint Rendered HTML
p18
sVsearch_backwards
p19
VSearch &backwards
p20
sVcurrent_document
p21
Vthe current document
p22
sVcreate_file_option
p23
VCreates any new files passed to the executable.
p24
sVenter_link
p25
VEnter the destination URL
p26
sVmade_changes
p27
VYou have made changes to
p28
sVimage_files_error_detail
p29
VImages should be found at %s
p30
sVother_options
p31
VOther Options
p32
sVset_font
p33
VSet Font
p34
sVprint_preview_rendered_html
p35
VPrint Preview Rendered HTML
p36
sVprint_raw_html
p37
VPrint Raw HTML Code
p38
sVcss
p39
VCSS
p40
sVreplace_all
p41
VReplace &all
p42
sVtools_menu
p43
V&Tools
p44
sVfile_argument
p45
VFiles to open in MarkdownEditor
p46
sVmarkdown_all
p47
VMarkdown All
p48
sVclose
p49
VClose
p50
sVshow_line_numbers
p51
VDisplay Line Numbers
p52
sVreplace_title
p53
VReplace
p54
sVembed_image
p55
VEmbed a given image as bytes
p56
sVformat_toolbar
p57
VFormat Toolbar
p58
sVopen_file
p59
VOpen File
p60
sVreplace_with
p61
VReplace with:
p62
sVstyle_name
p63
VStyle Name
p64
sVprint
p65
VPrint
p66
sVfile_toolbar
p67
VFile Toolbar
p68
sVnew_file
p69
VNew File
p70
sVreset_user_conf_help
p71
VRemove all the user configuration file.
p72
sVchange_font
p73
VChange Editor Font
p74
sVundo
p75
VUndo
p76
sVfind_what
p77
VFind &what:
p78
sVgithub_flavoured_markdown
p79
VGithub Flavoured Markdown
p80
sVprogram_name
p81
VMarkdownEditor
p82
sVpaste
p83
VPaste
p84
sVfind_title
p85
VFind
p86
sVsave_file
p87
VSave
p88
sVedit_menu
p89
V&Edit
p90
sVprogram_description
p91
VThis is a fully featured graphical editor for markdown.\u000a\u000aFor more information visit https://bitbucket.org/davidcorne/markdown-editor\u000a
p92
sVprint_markdown
p93
VPrint Markdown
p94
sVdebug_options
p95
VDebug Options
p96
sVdisplay_options
p97
VDisplay
p98
sVmarkdown
p99
VMarkdown
p100
sVmisc
p101
VMiscellaneous
p102
sVreplace
p103
V&Replace
p104
sVmatch_case
p105
VMatch &case
p106
sVredo
p107
VRedo
p108
sVsave_as
p109
VSave As
p110
sVlink_image
p111
VInsert a link to an external image
p112
sVfile_menu
p113
V&File
p114
sVundo_redo_toolbar
p115
VUndo Redo Toolbar
p116
sVmarkdown_type
p117
VMarkdown Type
p118
sVinsert_link
p119
VInsert Link
p120
sVpreview
p121
VPreview
p122
sVcode_css_class
p123
VCSS class used for code.
p124
sVmarkdown_extra
p125
VMarkdown Extra
p126
sVimage_files_error
p127
VImage files not found.
p128
sVcodehilite
p129
VCodeHilite
p130
sVcopy
p131
VCopy
p132
sVuser_interface_import_fail
p133
VThere has been an error in the user interface library loading.\u000a\u000aPlease report this at https://bitbucket.org/davidcorne/markdown-editor/issues\u000a
p134
sVexception
p135
VAn internal error has occured.
p136
sVhelp_link
p137
VMarkdown Editor On The Web
p138
sVclose_file
p139
VClose File
p140
sVenter_image_title
p141
VEnter the image title (optional)
p142
sVexport_html
p143
VExport HTML
p144
sVshow_html
p145
VShow HTML
p146
sVfile_not_found
p147
VFile %s does not exist.
p148
sVbrowse_for_image
p149
VBrowse for image
p150
sVsave_all
p151
VSave All Files
p152
sVedit_toolbar
p153
VEdit Toolbar
p154
sVsave_changes?
p155
VDo you want to save your changes?
p156
sVexport_pdf
p157
VExport PDF
p158
sVupdate_message
p159
VThere is an update available to download from the \u000a<a href="https://bitbucket.org/davidcorne/markdown-editor-downloads/src/tip/setup.exe?at=default">download site</a>\u000a
p160
sVselect_all
p161
VSelect All
p162
sVmatch_whole_words
p163
VMatch &whole words
p164
sVhelp_menu
p165
V&Help
p166
sVenter_image_location
p167
VEnter the image location
p168
sVimage_location
p169
VThe image location
p170
sVprint_preview_raw_html
p171
VPrint Preview Raw HTML Code
p172
sVoptions
p173
VOptions
p174
s.