(dp0
Vdisplay_options
p1
VDisplay
p2
sVmarkdown
p3
VMarkdown
p4
sVfind_and_replace
p5
VFind and Replace
p6
sVerror_text_was
p7
VThe text from it was:
p8
sVbrowse_for_image
p9
VBrowse for image
p10
sVprint_preview_markdown
p11
VPrint Preview Markdown
p12
sVreplace
p13
V&Replace
p14
sVmatch_case
p15
VMatch &case
p16
sVhelp_menu
p17
V&Help
p18
sVcode
p19
VCode
p20
sVmarkdown_all
p21
VMarkdown All
p22
sVedit_toolbar
p23
VEdit Toolbar
p24
sVclose
p25
VClose
p26
sVshow_line_numbers
p27
VDisplay Line Numbers
p28
sVredo
p29
VRedo
p30
sVfind
p31
V&Find
p32
sVreplace_title
p33
VReplace
p34
sVsave_as
p35
VSave As
p36
sVformat_toolbar
p37
VFormat Toolbar
p38
sVprint_rendered_html
p39
VPrint Rendered HTML
p40
sVselect_all
p41
VSelect All
p42
sVopen_file
p43
VOpen File
p44
sVsaved
p45
VFile saved
p46
sVsearch_backwards
p47
VSearch &backwards
p48
sVmatch_whole_words
p49
VMatch &whole words
p50
sVfile_menu
p51
V&File
p52
sVreplace_with
p53
VReplace with:
p54
sVundo_redo_toolbar
p55
VUndo Redo Toolbar
p56
sVcurrent_document
p57
Vthe current document
p58
sVmarkdown_type
p59
VMarkdown Type
p60
sVstyle_name
p61
VStyle Name
p62
sVprint
p63
VPrint
p64
sVinsert_link
p65
VInsert Link
p66
sVpreview
p67
VPreview
p68
sVenter_image_location
p69
VEnter the image location
p70
sVenter_link
p71
VEnter the destination URL
p72
sVuser_interface_import_fail
p73
VThere has been an error in the user interface library loading.\u000a\u000aPlease report this at https://bitbucket.org/davidcorne/markdown-editor/issues\u000a
p74
sVfile_toolbar
p75
VFile Toolbar
p76
sVchange_font
p77
VChange Editor Font
p78
sVsave_all
p79
VSave All Files
p80
sVmade_changes
p81
VYou have made changes to
p82
sVmarkdown_extra
p83
VMarkdown Extra
p84
sVnew_file
p85
VNew File
p86
sVimage_files_error_detail
p87
VImages should be found at %s
p88
sVmisc
p89
VMiscellaneous
p90
sVsave_changes?
p91
VDo you want to save your changes?
p92
sVexport_pdf
p93
VExport PDF
p94
sVundo
p95
VUndo
p96
sVimage_files_error
p97
VImage files not found.
p98
sVcodehilite
p99
VCodeHilite
p100
sVcut
p101
VCut
p102
sVother_options
p103
VOther Options
p104
sVfind_what
p105
VFind &what:
p106
sVgithub_flavoured_markdown
p107
VGithub Flavoured Markdown
p108
sVprint_preview_raw_html
p109
VPrint Preview Raw HTML Code
p110
sVprogram_name
p111
VMarkdownEditor
p112
sVcopy
p113
VCopy
p114
sVpaste
p115
VPaste
p116
sVset_font
p117
VSet Font
p118
sVexception
p119
VAn internal error has occured.
p120
sVfind_title
p121
VFind
p122
sVhelp_link
p123
VMarkdown Editor On The Web
p124
sVclose_file
p125
VClose File
p126
sVsave_file
p127
VSave
p128
sVenter_image_title
p129
VEnter the image title (optional)
p130
sVedit_menu
p131
V&Edit
p132
sVinsert_image
p133
VInsert Image
p134
sVprint_markdown
p135
VPrint Markdown
p136
sVprint_preview_rendered_html
p137
VPrint Preview Rendered HTML
p138
sVprint_raw_html
p139
VPrint Raw HTML Code
p140
sVcss
p141
VCSS
p142
sVreplace_all
p143
VReplace &all
p144
sVexport_html
p145
VExport HTML
p146
sVtools_menu
p147
V&Tools
p148
sVshow_html
p149
VShow HTML
p150
sVoptions
p151
VOptions
p152
sVdebug_options
p153
VDebug Options
p154
s.