(dp0
Vmarkdown
p1
VMarkdown
p2
sVfind_and_replace
p3
VFind and Replace
p4
sVerror_text_was
p5
VThe text from it was:
p6
sVbrowse_for_image
p7
VBrowse for image
p8
sVprint_preview_markdown
p9
VPrint Preview Markdown
p10
sVreplace
p11
V&Replace
p12
sVmatch_case
p13
VMatch &case
p14
sVcode
p15
VCode
p16
sVedit_toolbar
p17
VEdit Toolbar
p18
sVclose
p19
VClose
p20
sVredo
p21
VRedo
p22
sVfind
p23
V&Find
p24
sVreplace_title
p25
VReplace
p26
sVsave_as
p27
VSave As
p28
sVformat_toolbar
p29
VFormat Toolbar
p30
sVprint_rendered_html
p31
VPrint Rendered HTML
p32
sVselect_all
p33
VSelect All
p34
sVopen_file
p35
VOpen File
p36
sVsaved
p37
VFile saved
p38
sVsearch_backwards
p39
VSearch &backwards
p40
sVmatch_whole_words
p41
VMatch &whole words
p42
sVfile_menu
p43
V&File
p44
sVreplace_with
p45
VReplace with:
p46
sVundo_redo_toolbar
p47
VUndo Redo Toolbar
p48
sVcurrent_document
p49
Vthe current document
p50
sVmarkdown_type
p51
VMarkdown Type
p52
sVstyle_name
p53
VStyle Name
p54
sVprint
p55
VPrint
p56
sVinsert_link
p57
VInsert Link
p58
sVpreview
p59
VPreview
p60
sVenter_image_location
p61
VEnter the image location
p62
sVenter_link
p63
VEnter the destination URL
p64
sVfile_toolbar
p65
VFile Toolbar
p66
sVsave_all
p67
VSave All Files
p68
sVmade_changes
p69
VYou have made changes to
p70
sVmarkdown_extra
p71
VMarkdown Extra
p72
sVnew_file
p73
VNew File
p74
sVmisc
p75
VMiscellaneous
p76
sVsave_changes?
p77
VDo you want to save your changes?
p78
sVexport_pdf
p79
VExport PDF
p80
sVundo
p81
VUndo
p82
sVcut
p83
VCut
p84
sVfind_what
p85
VFind &what:
p86
sVgithub_flavoured_markdown
p87
VGithub Flavoured Markdown
p88
sVprint_preview_raw_html
p89
VPrint Preview Raw HTML Code
p90
sVprogram_name
p91
VMarkdownEditor
p92
sVcopy
p93
VCopy
p94
sVpaste
p95
VPaste
p96
sVexception
p97
VAn internal error has occured.
p98
sVfind_title
p99
VFind
p100
sVclose_file
p101
VClose File
p102
sVsave_file
p103
VSave
p104
sVenter_image_title
p105
VEnter the image title (optional)
p106
sVedit_menu
p107
V&Edit
p108
sVinsert_image
p109
VInsert Image
p110
sVprint_markdown
p111
VPrint Markdown
p112
sVprint_preview_rendered_html
p113
VPrint Preview Rendered HTML
p114
sVprint_raw_html
p115
VPrint Raw HTML Code
p116
sVcss
p117
VCSS
p118
sVreplace_all
p119
VReplace &all
p120
sVexport_html
p121
VExport HTML
p122
sVtools_menu
p123
V&Tools
p124
sVshow_html
p125
VShow HTML
p126
sVoptions
p127
VOptions
p128
sVdebug_options
p129
VDebug Options
p130
s.