(dp0
Vdisplay_options
p1
VDisplay
p2
sVmarkdown
p3
VMarkdown
p4
sVfind_and_replace
p5
VFind and Replace
p6
sVerror_text_was
p7
VThe text from it was:
p8
sVbrowse_for_image
p9
VBrowse for image
p10
sVprint_preview_markdown
p11
VPrint Preview Markdown
p12
sVreplace
p13
V&Replace
p14
sVmatch_case
p15
VMatch &case
p16
sVhelp_menu
p17
V&Help
p18
sVcode
p19
VCode
p20
sVmarkdown_all
p21
VMarkdown All
p22
sVedit_toolbar
p23
VEdit Toolbar
p24
sVclose
p25
VClose
p26
sVshow_line_numbers
p27
VDisplay Line Numbers
p28
sVredo
p29
VRedo
p30
sVfind
p31
V&Find
p32
sVreplace_title
p33
VReplace
p34
sVsave_as
p35
VSave As
p36
sVformat_toolbar
p37
VFormat Toolbar
p38
sVprint_rendered_html
p39
VPrint Rendered HTML
p40
sVselect_all
p41
VSelect All
p42
sVopen_file
p43
VOpen File
p44
sVsaved
p45
VFile saved
p46
sVsearch_backwards
p47
VSearch &backwards
p48
sVmatch_whole_words
p49
VMatch &whole words
p50
sVfile_menu
p51
V&File
p52
sVreplace_with
p53
VReplace with:
p54
sVundo_redo_toolbar
p55
VUndo Redo Toolbar
p56
sVcurrent_document
p57
Vthe current document
p58
sVmarkdown_type
p59
VMarkdown Type
p60
sVstyle_name
p61
VStyle Name
p62
sVprint
p63
VPrint
p64
sVinsert_link
p65
VInsert Link
p66
sVpreview
p67
VPreview
p68
sVenter_image_location
p69
VEnter the image location
p70
sVenter_link
p71
VEnter the destination URL
p72
sVuser_interface_import_fail
p73
VUser interface library not loaded.\u000a\u000aPlease report this at https://bitbucket.org/davidcorne/markdown-editor/issues\u000a
p74
sVfile_toolbar
p75
VFile Toolbar
p76
sVchange_font
p77
VChange Editor Font
p78
sVsave_all
p79
VSave All Files
p80
sVmade_changes
p81
VYou have made changes to
p82
sVmarkdown_extra
p83
VMarkdown Extra
p84
sVnew_file
p85
VNew File
p86
sVmisc
p87
VMiscellaneous
p88
sVsave_changes?
p89
VDo you want to save your changes?
p90
sVexport_pdf
p91
VExport PDF
p92
sVundo
p93
VUndo
p94
sVcodehilite
p95
VCodeHilite
p96
sVcut
p97
VCut
p98
sVother_options
p99
VOther Options
p100
sVfind_what
p101
VFind &what:
p102
sVgithub_flavoured_markdown
p103
VGithub Flavoured Markdown
p104
sVprint_preview_raw_html
p105
VPrint Preview Raw HTML Code
p106
sVprogram_name
p107
VMarkdownEditor
p108
sVcopy
p109
VCopy
p110
sVpaste
p111
VPaste
p112
sVset_font
p113
VSet Font
p114
sVexception
p115
VAn internal error has occured.
p116
sVfind_title
p117
VFind
p118
sVhelp_link
p119
VMarkdown Editor On The Web
p120
sVclose_file
p121
VClose File
p122
sVsave_file
p123
VSave
p124
sVenter_image_title
p125
VEnter the image title (optional)
p126
sVedit_menu
p127
V&Edit
p128
sVinsert_image
p129
VInsert Image
p130
sVprint_markdown
p131
VPrint Markdown
p132
sVprint_preview_rendered_html
p133
VPrint Preview Rendered HTML
p134
sVprint_raw_html
p135
VPrint Raw HTML Code
p136
sVcss
p137
VCSS
p138
sVreplace_all
p139
VReplace &all
p140
sVexport_html
p141
VExport HTML
p142
sVtools_menu
p143
V&Tools
p144
sVshow_html
p145
VShow HTML
p146
sVoptions
p147
VOptions
p148
sVdebug_options
p149
VDebug Options
p150
s.