(dp0
Vmarkdown
p1
VMarkdown
p2
sVfind_and_replace
p3
VFind and Replace
p4
sVerror_text_was
p5
VThe text from it was:
p6
sVbrowse_for_image
p7
VBrowse for image
p8
sVprint_preview_markdown
p9
VPrint Preview Markdown
p10
sVreplace
p11
V&Replace
p12
sVmatch_case
p13
VMatch &case
p14
sVhelp_menu
p15
V&Help
p16
sVcode
p17
VCode
p18
sVmarkdown_all
p19
VMarkdown All
p20
sVedit_toolbar
p21
VEdit Toolbar
p22
sVclose
p23
VClose
p24
sVshow_line_numbers
p25
VDisplay Line Numbers
p26
sVredo
p27
VRedo
p28
sVfind
p29
V&Find
p30
sVreplace_title
p31
VReplace
p32
sVsave_as
p33
VSave As
p34
sVformat_toolbar
p35
VFormat Toolbar
p36
sVprint_rendered_html
p37
VPrint Rendered HTML
p38
sVselect_all
p39
VSelect All
p40
sVopen_file
p41
VOpen File
p42
sVsaved
p43
VFile saved
p44
sVsearch_backwards
p45
VSearch &backwards
p46
sVmatch_whole_words
p47
VMatch &whole words
p48
sVfile_menu
p49
V&File
p50
sVreplace_with
p51
VReplace with:
p52
sVundo_redo_toolbar
p53
VUndo Redo Toolbar
p54
sVcurrent_document
p55
Vthe current document
p56
sVmarkdown_type
p57
VMarkdown Type
p58
sVstyle_name
p59
VStyle Name
p60
sVprint
p61
VPrint
p62
sVinsert_link
p63
VInsert Link
p64
sVpreview
p65
VPreview
p66
sVenter_image_location
p67
VEnter the image location
p68
sVenter_link
p69
VEnter the destination URL
p70
sVfile_toolbar
p71
VFile Toolbar
p72
sVsave_all
p73
VSave All Files
p74
sVmade_changes
p75
VYou have made changes to
p76
sVmarkdown_extra
p77
VMarkdown Extra
p78
sVnew_file
p79
VNew File
p80
sVmisc
p81
VMiscellaneous
p82
sVsave_changes?
p83
VDo you want to save your changes?
p84
sVexport_pdf
p85
VExport PDF
p86
sVundo
p87
VUndo
p88
sVcodehilite
p89
VCodeHilite
p90
sVcut
p91
VCut
p92
sVother_options
p93
VOther Options
p94
sVfind_what
p95
VFind &what:
p96
sVgithub_flavoured_markdown
p97
VGithub Flavoured Markdown
p98
sVprint_preview_raw_html
p99
VPrint Preview Raw HTML Code
p100
sVprogram_name
p101
VMarkdownEditor
p102
sVcopy
p103
VCopy
p104
sVpaste
p105
VPaste
p106
sVexception
p107
VAn internal error has occured.
p108
sVfind_title
p109
VFind
p110
sVhelp_link
p111
VMarkdown Editor On The Web
p112
sVclose_file
p113
VClose File
p114
sVsave_file
p115
VSave
p116
sVenter_image_title
p117
VEnter the image title (optional)
p118
sVedit_menu
p119
V&Edit
p120
sVinsert_image
p121
VInsert Image
p122
sVprint_markdown
p123
VPrint Markdown
p124
sVprint_preview_rendered_html
p125
VPrint Preview Rendered HTML
p126
sVprint_raw_html
p127
VPrint Raw HTML Code
p128
sVcss
p129
VCSS
p130
sVreplace_all
p131
VReplace &all
p132
sVexport_html
p133
VExport HTML
p134
sVtools_menu
p135
V&Tools
p136
sVshow_html
p137
VShow HTML
p138
sVoptions
p139
VOptions
p140
sVdebug_options
p141
VDebug Options
p142
s.