(dp0
Vdisplay_options
p1
VDisplay
p2
sVmarkdown
p3
VMarkdown
p4
sVfind_and_replace
p5
VFind and Replace
p6
sVbrowse_for_image
p7
VBrowse for image
p8
sVprint_preview_markdown
p9
VPrint Preview Markdown
p10
sVreplace
p11
V&Replace
p12
sVmatch_case
p13
VMatch &case
p14
sVhelp_menu
p15
V&Help
p16
sVcode
p17
VCode
p18
sVmarkdown_all
p19
VMarkdown All
p20
sVedit_toolbar
p21
VEdit Toolbar
p22
sVclose
p23
VClose
p24
sVshow_line_numbers
p25
VDisplay Line Numbers
p26
sVredo
p27
VRedo
p28
sVfind
p29
V&Find
p30
sVreplace_title
p31
VReplace
p32
sVsave_as
p33
VSave As
p34
sVformat_toolbar
p35
VFormat Toolbar
p36
sVprint_rendered_html
p37
VPrint Rendered HTML
p38
sVselect_all
p39
VSelect All
p40
sVopen_file
p41
VOpen File
p42
sVsaved
p43
VFile saved
p44
sVsearch_backwards
p45
VSearch &backwards
p46
sVmatch_whole_words
p47
VMatch &whole words
p48
sVfile_menu
p49
V&File
p50
sVreplace_with
p51
VReplace with:
p52
sVundo_redo_toolbar
p53
VUndo Redo Toolbar
p54
sVcurrent_document
p55
Vthe current document
p56
sVmarkdown_type
p57
VMarkdown Type
p58
sVstyle_name
p59
VStyle Name
p60
sVprint
p61
VPrint
p62
sVinsert_link
p63
VInsert Link
p64
sVpreview
p65
VPreview
p66
sVenter_image_location
p67
VEnter the image location
p68
sVenter_link
p69
VEnter the destination URL
p70
sVuser_interface_import_fail
p71
VThere has been an error in the user interface library loading.\u000a\u000aPlease report this at https://bitbucket.org/davidcorne/markdown-editor/issues\u000a
p72
sVfile_toolbar
p73
VFile Toolbar
p74
sVchange_font
p75
VChange Editor Font
p76
sVsave_all
p77
VSave All Files
p78
sVmade_changes
p79
VYou have made changes to
p80
sVmarkdown_extra
p81
VMarkdown Extra
p82
sVnew_file
p83
VNew File
p84
sVimage_files_error_detail
p85
VImages should be found at %s
p86
sVmisc
p87
VMiscellaneous
p88
sVsave_changes?
p89
VDo you want to save your changes?
p90
sVexport_pdf
p91
VExport PDF
p92
sVundo
p93
VUndo
p94
sVimage_files_error
p95
VImage files not found.
p96
sVcodehilite
p97
VCodeHilite
p98
sVcut
p99
VCut
p100
sVother_options
p101
VOther Options
p102
sVfind_what
p103
VFind &what:
p104
sVgithub_flavoured_markdown
p105
VGithub Flavoured Markdown
p106
sVprint_preview_raw_html
p107
VPrint Preview Raw HTML Code
p108
sVprogram_name
p109
VMarkdownEditor
p110
sVcopy
p111
VCopy
p112
sVpaste
p113
VPaste
p114
sVset_font
p115
VSet Font
p116
sVexception
p117
VAn internal error has occured.
p118
sVfind_title
p119
VFind
p120
sVhelp_link
p121
VMarkdown Editor On The Web
p122
sVclose_file
p123
VClose File
p124
sVsave_file
p125
VSave
p126
sVenter_image_title
p127
VEnter the image title (optional)
p128
sVedit_menu
p129
V&Edit
p130
sVinsert_image
p131
VInsert Image
p132
sVprint_markdown
p133
VPrint Markdown
p134
sVprint_preview_rendered_html
p135
VPrint Preview Rendered HTML
p136
sVprint_raw_html
p137
VPrint Raw HTML Code
p138
sVcss
p139
VCSS
p140
sVreplace_all
p141
VReplace &all
p142
sVexport_html
p143
VExport HTML
p144
sVtools_menu
p145
V&Tools
p146
sVshow_html
p147
VShow HTML
p148
sVoptions
p149
VOptions
p150
sVdebug_options
p151
VDebug Options
p152
s.