(dp0
Vdisplay_options
p1
VDisplay
p2
sVmarkdown
p3
VMarkdown
p4
sVfile_argument
p5
VFiles to open in MarkdownEditor
p6
sVfind_and_replace
p7
VFind and Replace
p8
sVlink_image
p9
VInsert a link to an external image.
p10
sVbrowse_for_image
p11
VBrowse for image
p12
sVprint_preview_markdown
p13
VPrint Preview Markdown
p14
sVreplace
p15
V&Replace
p16
sVmatch_case
p17
VMatch &case
p18
sVhelp_menu
p19
V&Help
p20
sVcode
p21
VCode
p22
sVmarkdown_all
p23
VMarkdown All
p24
sVedit_toolbar
p25
VEdit Toolbar
p26
sVclose
p27
VClose
p28
sVshow_line_numbers
p29
VDisplay Line Numbers
p30
sVredo
p31
VRedo
p32
sVfind
p33
V&Find
p34
sVreplace_title
p35
VReplace
p36
sVsave_as
p37
VSave As
p38
sVfile_not_created
p39
VFile %s could not be created.
p40
sVformat_toolbar
p41
VFormat Toolbar
p42
sVprogram_description
p43
VThis is a fully featured graphical editor for markdown.\u000a\u000aFor more information visit https://bitbucket.org/davidcorne/markdown-editor\u000a
p44
sVprint_rendered_html
p45
VPrint Rendered HTML
p46
sVselect_all
p47
VSelect All
p48
sVopen_file
p49
VOpen File
p50
sVsaved
p51
VFile saved
p52
sVsearch_backwards
p53
VSearch &backwards
p54
sVmatch_whole_words
p55
VMatch &whole words
p56
sVfile_menu
p57
V&File
p58
sVreplace_with
p59
VReplace with:
p60
sVundo_redo_toolbar
p61
VUndo Redo Toolbar
p62
sVcurrent_document
p63
Vthe current document
p64
sVmarkdown_type
p65
VMarkdown Type
p66
sVstyle_name
p67
VStyle Name
p68
sVprint
p69
VPrint
p70
sVinsert_link
p71
VInsert Link
p72
sVreset_user_conf_help
p73
VRemove all the user configuration file.
p74
sVpreview
p75
VPreview
p76
sVcode_css_class
p77
VCSS class used for code.
p78
sVenter_image_location
p79
VEnter the image location
p80
sVenter_link
p81
VEnter the destination URL
p82
sVuser_interface_import_fail
p83
VThere has been an error in the user interface library loading.\u000a\u000aPlease report this at https://bitbucket.org/davidcorne/markdown-editor/issues\u000a
p84
sVfile_toolbar
p85
VFile Toolbar
p86
sVchange_font
p87
VChange Editor Font
p88
sVsave_all
p89
VSave All Files
p90
sVmade_changes
p91
VYou have made changes to
p92
sVmarkdown_extra
p93
VMarkdown Extra
p94
sVnew_file
p95
VNew File
p96
sVimage_files_error_detail
p97
VImages should be found at %s
p98
sVmisc
p99
VMiscellaneous
p100
sVsave_changes?
p101
VDo you want to save your changes?
p102
sVexport_pdf
p103
VExport PDF
p104
sVundo
p105
VUndo
p106
sVimage_files_error
p107
VImage files not found.
p108
sVcodehilite
p109
VCodeHilite
p110
sVcut
p111
VCut
p112
sVother_options
p113
VOther Options
p114
sVfind_what
p115
VFind &what:
p116
sVgithub_flavoured_markdown
p117
VGithub Flavoured Markdown
p118
sVprint_preview_raw_html
p119
VPrint Preview Raw HTML Code
p120
sVcreate_file_option
p121
VCreates any new files passed to the executable.
p122
sVprogram_name
p123
VMarkdownEditor
p124
sVcopy
p125
VCopy
p126
sVpaste
p127
VPaste
p128
sVset_font
p129
VSet Font
p130
sVexception
p131
VAn internal error has occured.
p132
sVfile_not_found
p133
VFile %s does not exist.
p134
sVfind_title
p135
VFind
p136
sVhelp_link
p137
VMarkdown Editor On The Web
p138
sVclose_file
p139
VClose File
p140
sVsave_file
p141
VSave
p142
sVenter_image_title
p143
VEnter the image title (optional)
p144
sVedit_menu
p145
V&Edit
p146
sVprint_markdown
p147
VPrint Markdown
p148
sVprint_preview_rendered_html
p149
VPrint Preview Rendered HTML
p150
sVprint_raw_html
p151
VPrint Raw HTML Code
p152
sVcss
p153
VCSS
p154
sVreplace_all
p155
VReplace &all
p156
sVexport_html
p157
VExport HTML
p158
sVtools_menu
p159
V&Tools
p160
sVshow_html
p161
VShow HTML
p162
sVoptions
p163
VOptions
p164
sVdebug_options
p165
VDebug Options
p166
s.