(dp0
Vdisplay_options
p1
VDisplay
p2
sVmarkdown
p3
VMarkdown
p4
sVfind_and_replace
p5
VFind and Replace
p6
sVbrowse_for_image
p7
VBrowse for image
p8
sVprint_preview_markdown
p9
VPrint Preview Markdown
p10
sVreplace
p11
V&Replace
p12
sVmatch_case
p13
VMatch &case
p14
sVhelp_menu
p15
V&Help
p16
sVcode
p17
VCode
p18
sVmarkdown_all
p19
VMarkdown All
p20
sVedit_toolbar
p21
VEdit Toolbar
p22
sVclose
p23
VClose
p24
sVshow_line_numbers
p25
VDisplay Line Numbers
p26
sVredo
p27
VRedo
p28
sVfind
p29
V&Find
p30
sVreplace_title
p31
VReplace
p32
sVsave_as
p33
VSave As
p34
sVformat_toolbar
p35
VFormat Toolbar
p36
sVprint_rendered_html
p37
VPrint Rendered HTML
p38
sVselect_all
p39
VSelect All
p40
sVopen_file
p41
VOpen File
p42
sVsaved
p43
VFile saved
p44
sVsearch_backwards
p45
VSearch &backwards
p46
sVmatch_whole_words
p47
VMatch &whole words
p48
sVfile_menu
p49
V&File
p50
sVreplace_with
p51
VReplace with:
p52
sVundo_redo_toolbar
p53
VUndo Redo Toolbar
p54
sVcurrent_document
p55
Vthe current document
p56
sVmarkdown_type
p57
VMarkdown Type
p58
sVstyle_name
p59
VStyle Name
p60
sVprint
p61
VPrint
p62
sVinsert_link
p63
VInsert Link
p64
sVpreview
p65
VPreview
p66
sVcode_css_class
p67
VCSS class used for code.
p68
sVenter_image_location
p69
VEnter the image location
p70
sVenter_link
p71
VEnter the destination URL
p72
sVuser_interface_import_fail
p73
VThere has been an error in the user interface library loading.\u000a\u000aPlease report this at https://bitbucket.org/davidcorne/markdown-editor/issues\u000a
p74
sVfile_toolbar
p75
VFile Toolbar
p76
sVchange_font
p77
VChange Editor Font
p78
sVsave_all
p79
VSave All Files
p80
sVmade_changes
p81
VYou have made changes to
p82
sVmarkdown_extra
p83
VMarkdown Extra
p84
sVnew_file
p85
VNew File
p86
sVimage_files_error_detail
p87
VImages should be found at %s
p88
sVmisc
p89
VMiscellaneous
p90
sVsave_changes?
p91
VDo you want to save your changes?
p92
sVexport_pdf
p93
VExport PDF
p94
sVundo
p95
VUndo
p96
sVimage_files_error
p97
VImage files not found.
p98
sVcodehilite
p99
VCodeHilite
p100
sVcut
p101
VCut
p102
sVother_options
p103
VOther Options
p104
sVfind_what
p105
VFind &what:
p106
sVgithub_flavoured_markdown
p107
VGithub Flavoured Markdown
p108
sVprint_preview_raw_html
p109
VPrint Preview Raw HTML Code
p110
sVprogram_name
p111
VMarkdownEditor
p112
sVcopy
p113
VCopy
p114
sVpaste
p115
VPaste
p116
sVset_font
p117
VSet Font
p118
sVexception
p119
VAn internal error has occured.
p120
sVfind_title
p121
VFind
p122
sVhelp_link
p123
VMarkdown Editor On The Web
p124
sVclose_file
p125
VClose File
p126
sVsave_file
p127
VSave
p128
sVenter_image_title
p129
VEnter the image title (optional)
p130
sVedit_menu
p131
V&Edit
p132
sVinsert_image
p133
VInsert Image
p134
sVprint_markdown
p135
VPrint Markdown
p136
sVprint_preview_rendered_html
p137
VPrint Preview Rendered HTML
p138
sVprint_raw_html
p139
VPrint Raw HTML Code
p140
sVcss
p141
VCSS
p142
sVreplace_all
p143
VReplace &all
p144
sVexport_html
p145
VExport HTML
p146
sVtools_menu
p147
V&Tools
p148
sVshow_html
p149
VShow HTML
p150
sVoptions
p151
VOptions
p152
sVdebug_options
p153
VDebug Options
p154
s.