(dp0
Vdisplay_options
p1
VDisplay
p2
sVmarkdown
p3
VMarkdown
p4
sVfile_argument
p5
VFiles to open in MarkdownEditor
p6
sVfind_and_replace
p7
VFind and Replace
p8
sVbrowse_for_image
p9
VBrowse for image
p10
sVprint_preview_markdown
p11
VPrint Preview Markdown
p12
sVreplace
p13
V&Replace
p14
sVmatch_case
p15
VMatch &case
p16
sVhelp_menu
p17
V&Help
p18
sVcode
p19
VCode
p20
sVmarkdown_all
p21
VMarkdown All
p22
sVedit_toolbar
p23
VEdit Toolbar
p24
sVclose
p25
VClose
p26
sVshow_line_numbers
p27
VDisplay Line Numbers
p28
sVredo
p29
VRedo
p30
sVfind
p31
V&Find
p32
sVreplace_title
p33
VReplace
p34
sVsave_as
p35
VSave As
p36
sVfile_not_created
p37
VFile %s could not be created.
p38
sVformat_toolbar
p39
VFormat Toolbar
p40
sVprogram_description
p41
VThis is a fully featured graphical editor for markdown.\u000a\u000aFor more information visit https://bitbucket.org/davidcorne/markdown-editor\u000a
p42
sVprint_rendered_html
p43
VPrint Rendered HTML
p44
sVselect_all
p45
VSelect All
p46
sVopen_file
p47
VOpen File
p48
sVsaved
p49
VFile saved
p50
sVsearch_backwards
p51
VSearch &backwards
p52
sVmatch_whole_words
p53
VMatch &whole words
p54
sVfile_menu
p55
V&File
p56
sVreplace_with
p57
VReplace with:
p58
sVundo_redo_toolbar
p59
VUndo Redo Toolbar
p60
sVcurrent_document
p61
Vthe current document
p62
sVmarkdown_type
p63
VMarkdown Type
p64
sVstyle_name
p65
VStyle Name
p66
sVprint
p67
VPrint
p68
sVinsert_link
p69
VInsert Link
p70
sVreset_user_conf_help
p71
VRemove all the user configuration file.
p72
sVpreview
p73
VPreview
p74
sVcode_css_class
p75
VCSS class used for code.
p76
sVenter_image_location
p77
VEnter the image location
p78
sVenter_link
p79
VEnter the destination URL
p80
sVuser_interface_import_fail
p81
VThere has been an error in the user interface library loading.\u000a\u000aPlease report this at https://bitbucket.org/davidcorne/markdown-editor/issues\u000a
p82
sVfile_toolbar
p83
VFile Toolbar
p84
sVchange_font
p85
VChange Editor Font
p86
sVsave_all
p87
VSave All Files
p88
sVmade_changes
p89
VYou have made changes to
p90
sVmarkdown_extra
p91
VMarkdown Extra
p92
sVnew_file
p93
VNew File
p94
sVimage_files_error_detail
p95
VImages should be found at %s
p96
sVmisc
p97
VMiscellaneous
p98
sVsave_changes?
p99
VDo you want to save your changes?
p100
sVexport_pdf
p101
VExport PDF
p102
sVundo
p103
VUndo
p104
sVimage_files_error
p105
VImage files not found.
p106
sVcodehilite
p107
VCodeHilite
p108
sVcut
p109
VCut
p110
sVother_options
p111
VOther Options
p112
sVfind_what
p113
VFind &what:
p114
sVgithub_flavoured_markdown
p115
VGithub Flavoured Markdown
p116
sVprint_preview_raw_html
p117
VPrint Preview Raw HTML Code
p118
sVcreate_file_option
p119
VCreates any new files passed to the executable.
p120
sVprogram_name
p121
VMarkdownEditor
p122
sVcopy
p123
VCopy
p124
sVpaste
p125
VPaste
p126
sVset_font
p127
VSet Font
p128
sVexception
p129
VAn internal error has occured.
p130
sVfile_not_found
p131
VFile %s does not exist.
p132
sVfind_title
p133
VFind
p134
sVhelp_link
p135
VMarkdown Editor On The Web
p136
sVclose_file
p137
VClose File
p138
sVsave_file
p139
VSave
p140
sVenter_image_title
p141
VEnter the image title (optional)
p142
sVedit_menu
p143
V&Edit
p144
sVinsert_image
p145
VInsert Image
p146
sVprint_markdown
p147
VPrint Markdown
p148
sVprint_preview_rendered_html
p149
VPrint Preview Rendered HTML
p150
sVprint_raw_html
p151
VPrint Raw HTML Code
p152
sVcss
p153
VCSS
p154
sVreplace_all
p155
VReplace &all
p156
sVexport_html
p157
VExport HTML
p158
sVtools_menu
p159
V&Tools
p160
sVshow_html
p161
VShow HTML
p162
sVoptions
p163
VOptions
p164
sVdebug_options
p165
VDebug Options
p166
s.