(dp0
Vupdate_available
p1
VUpdate Available
p2
sVfind_and_replace
p3
VFind and Replace
p4
sVfile_not_created
p5
VFile %s could not be created.
p6
sVprint_preview_markdown
p7
VPrint Preview Markdown
p8
sVcode
p9
VCode
p10
sVsaved
p11
VFile saved
p12
sVfind
p13
V&Find
p14
sVcut
p15
VCut
p16
sVprint_rendered_html
p17
VPrint Rendered HTML
p18
sVsearch_backwards
p19
VSearch &backwards
p20
sVcurrent_document
p21
Vthe current document
p22
sVcreate_file_option
p23
VCreates any new files passed to the executable.
p24
sVenter_link
p25
VEnter the destination URL
p26
sVmade_changes
p27
VYou have made changes to
p28
sVimage_files_error_detail
p29
VImages should be found at %s
p30
sVother_options
p31
VOther Options
p32
sVset_font
p33
VSet Font
p34
sVprint_preview_rendered_html
p35
VPrint Preview Rendered HTML
p36
sVprint_raw_html
p37
VPrint Raw HTML Code
p38
sVcss
p39
VCSS
p40
sVreplace_all
p41
VReplace &all
p42
sVtools_menu
p43
V&Tools
p44
sVfile_argument
p45
VFiles to open in MarkdownEditor
p46
sVspelling_suggestions
p47
VSpelling Suggestions
p48
sVmarkdown_all
p49
VMarkdown All
p50
sVclose
p51
VClose
p52
sVshow_line_numbers
p53
VDisplay Line Numbers
p54
sVreplace_title
p55
VReplace
p56
sVembed_image
p57
VEmbed a given image as bytes
p58
sVformat_toolbar
p59
VFormat Toolbar
p60
sVopen_file
p61
VOpen File
p62
sVreplace_with
p63
VReplace with:
p64
sVstyle_name
p65
VStyle Name
p66
sVprint
p67
VPrint
p68
sVfile_toolbar
p69
VFile Toolbar
p70
sVnew_file
p71
VNew File
p72
sVreset_user_conf_help
p73
VRemove all the user configuration file.
p74
sVchange_font
p75
VChange Editor Font
p76
sVundo
p77
VUndo
p78
sVfind_what
p79
VFind &what:
p80
sVgithub_flavoured_markdown
p81
VGithub Flavoured Markdown
p82
sVprogram_name
p83
VMarkdownEditor
p84
sVpaste
p85
VPaste
p86
sVfind_title
p87
VFind
p88
sVsave_file
p89
VSave
p90
sVedit_menu
p91
V&Edit
p92
sVprogram_description
p93
VThis is a fully featured graphical editor for markdown.\u000a\u000aFor more information visit https://bitbucket.org/davidcorne/markdown-editor\u000a
p94
sVprint_markdown
p95
VPrint Markdown
p96
sVdebug_options
p97
VDebug Options
p98
sVdisplay_options
p99
VDisplay
p100
sVmarkdown
p101
VMarkdown
p102
sVmisc
p103
VMiscellaneous
p104
sVreplace
p105
V&Replace
p106
sVmatch_case
p107
VMatch &case
p108
sVredo
p109
VRedo
p110
sVsave_as
p111
VSave As
p112
sVlink_image
p113
VInsert a link to an external image
p114
sVfile_menu
p115
V&File
p116
sVundo_redo_toolbar
p117
VUndo Redo Toolbar
p118
sVmarkdown_type
p119
VMarkdown Type
p120
sVinsert_link
p121
VInsert Link
p122
sVpreview
p123
VPreview
p124
sVcode_css_class
p125
VCSS class used for code.
p126
sVmarkdown_extra
p127
VMarkdown Extra
p128
sVimage_files_error
p129
VImage files not found.
p130
sVcodehilite
p131
VCodeHilite
p132
sVcopy
p133
VCopy
p134
sVuser_interface_import_fail
p135
VThere has been an error in the user interface library loading.\u000a\u000aPlease report this at https://bitbucket.org/davidcorne/markdown-editor/issues\u000a
p136
sVexception
p137
VAn internal error has occured.
p138
sVhelp_link
p139
VMarkdown Editor On The Web
p140
sVclose_file
p141
VClose File
p142
sVenter_image_title
p143
VEnter the image title (optional)
p144
sVexport_html
p145
VExport HTML
p146
sVshow_html
p147
VShow HTML
p148
sVfile_not_found
p149
VFile %s does not exist.
p150
sVbrowse_for_image
p151
VBrowse for image
p152
sVsave_all
p153
VSave All Files
p154
sVedit_toolbar
p155
VEdit Toolbar
p156
sVsave_changes?
p157
VDo you want to save your changes?
p158
sVexport_pdf
p159
VExport PDF
p160
sVupdate_message
p161
VThere is an update available to download from the \u000a<a href="https://bitbucket.org/davidcorne/markdown-editor-downloads/src/tip/setup.exe?at=default">download site</a>\u000a
p162
sVselect_all
p163
VSelect All
p164
sVmatch_whole_words
p165
VMatch &whole words
p166
sVhelp_menu
p167
V&Help
p168
sVenter_image_location
p169
VEnter the image location
p170
sVimage_location
p171
VThe image location
p172
sVprint_preview_raw_html
p173
VPrint Preview Raw HTML Code
p174
sVlogging_file_location
p175
VLogging file is located %s
p176
sVoptions
p177
VOptions
p178
s.