(dp0
Vmarkdown
p1
VMarkdown
p2
sVfind_and_replace
p3
VFind and Replace
p4
sVerror_text_was
p5
VThe text from it was:
p6
sVbrowse_for_image
p7
VBrowse for image
p8
sVprint_preview_markdown
p9
VPrint Preview Markdown
p10
sVreplace
p11
V&Replace
p12
sVmatch_case
p13
VMatch &case
p14
sVcode
p15
VCode
p16
sVedit_toolbar
p17
VEdit Toolbar
p18
sVclose
p19
VClose
p20
sVshow_line_numbers
p21
VDisplay Line Numbers
p22
sVredo
p23
VRedo
p24
sVfind
p25
V&Find
p26
sVreplace_title
p27
VReplace
p28
sVsave_as
p29
VSave As
p30
sVformat_toolbar
p31
VFormat Toolbar
p32
sVprint_rendered_html
p33
VPrint Rendered HTML
p34
sVselect_all
p35
VSelect All
p36
sVopen_file
p37
VOpen File
p38
sVsaved
p39
VFile saved
p40
sVsearch_backwards
p41
VSearch &backwards
p42
sVmatch_whole_words
p43
VMatch &whole words
p44
sVfile_menu
p45
V&File
p46
sVreplace_with
p47
VReplace with:
p48
sVundo_redo_toolbar
p49
VUndo Redo Toolbar
p50
sVcurrent_document
p51
Vthe current document
p52
sVmarkdown_type
p53
VMarkdown Type
p54
sVstyle_name
p55
VStyle Name
p56
sVprint
p57
VPrint
p58
sVinsert_link
p59
VInsert Link
p60
sVpreview
p61
VPreview
p62
sVenter_image_location
p63
VEnter the image location
p64
sVenter_link
p65
VEnter the destination URL
p66
sVfile_toolbar
p67
VFile Toolbar
p68
sVsave_all
p69
VSave All Files
p70
sVmade_changes
p71
VYou have made changes to
p72
sVmarkdown_extra
p73
VMarkdown Extra
p74
sVnew_file
p75
VNew File
p76
sVmisc
p77
VMiscellaneous
p78
sVsave_changes?
p79
VDo you want to save your changes?
p80
sVexport_pdf
p81
VExport PDF
p82
sVundo
p83
VUndo
p84
sVcodehilite
p85
VCodeHilite
p86
sVcut
p87
VCut
p88
sVother_options
p89
VOther Options
p90
sVfind_what
p91
VFind &what:
p92
sVgithub_flavoured_markdown
p93
VGithub Flavoured Markdown
p94
sVprint_preview_raw_html
p95
VPrint Preview Raw HTML Code
p96
sVprogram_name
p97
VMarkdownEditor
p98
sVcopy
p99
VCopy
p100
sVpaste
p101
VPaste
p102
sVexception
p103
VAn internal error has occured.
p104
sVfind_title
p105
VFind
p106
sVclose_file
p107
VClose File
p108
sVsave_file
p109
VSave
p110
sVenter_image_title
p111
VEnter the image title (optional)
p112
sVedit_menu
p113
V&Edit
p114
sVinsert_image
p115
VInsert Image
p116
sVprint_markdown
p117
VPrint Markdown
p118
sVprint_preview_rendered_html
p119
VPrint Preview Rendered HTML
p120
sVprint_raw_html
p121
VPrint Raw HTML Code
p122
sVcss
p123
VCSS
p124
sVreplace_all
p125
VReplace &all
p126
sVexport_html
p127
VExport HTML
p128
sVtools_menu
p129
V&Tools
p130
sVshow_html
p131
VShow HTML
p132
sVoptions
p133
VOptions
p134
sVdebug_options
p135
VDebug Options
p136
s.