(dp0
S'code'
p1
S' Surround the highlighted area with code blocks (```)'
p2
sS'find_and_replace'
p3
S' Raise the find and replace window'
p4
sS'print_preview_markdown'
p5
S' Shows a preview of the markdown before printing'
p6
sS'save_all'
p7
S' Save all open documents'
p8
sS'redo'
p9
S' Redo the previous undo'
p10
sS'bold'
p11
S' Surround the highlighted area with strong emphasis (__)'
p12
sS'save_as'
p13
S' Save the current document with a specified name'
p14
sS'embed_image'
p15
S' Embed a given image as bytes'
p16
sS'cut'
p17
S' Cut the highlighted area to the clipboard'
p18
sS'print_rendered_html'
p19
S' Prints the HTML output as it will be rendered by a browser'
p20
sS'select_all'
p21
S' Select all the text in the current document'
p22
sS'open_file'
p23
S' Open an existing document'
p24
sS'new_file'
p25
S' Start a new document'
p26
sS'link_image'
p27
S' Link to an image with the title of the surrounded area'
p28
sS'italic'
p29
S' Surround the highlighted area with emphasis (_)'
p30
sS'show_log_file_location'
p31
S' Show the loction of the log file.'
p32
sS'print_menu'
p33
S' Opens the printing menu'
p34
sS'choose_colour'
p35
S' Raise a colour chooser dialog'
p36
sS'configure'
p37
S' Configure the program'
p38
sS'print_preview_raw_html'
p39
S' Shows a preview of the raw HTML code output before printing'
p40
sS'image_menu'
p41
S' Opens a list of image options'
p42
sS'undo'
p43
S' Undo the previous change'
p44
sS'export_pdf'
p45
S' Export the current document as a pdf file'
p46
sS'link'
p47
S' Insert a link with the link text of the surrounded area'
p48
sS'copy'
p49
S' Copy the highlighted area to the clipboard'
p50
sS'paste'
p51
S' Paste from the clipboard to the current cursor location'
p52
sS'set_colour'
p53
S' Set the colour of the highlighted area to this colour'
p54
sS'help_link'
p55
S' Opens the website for this product in your defualt browser'
p56
sS'close_file'
p57
S' Close the currently open document'
p58
sS'save_file'
p59
S' Save the current document'
p60
sS'print_preview_rendered_html'
p61
S' Shows a preview of the HTML output as it will be rendered by a browser before printing'
p62
sS'print_raw_html'
p63
S' Prints the raw HTML code output'
p64
sS'export_html'
p65
S' Export the current document as html'
p66
sS'print_markdown'
p67
S' Prints the markdown document'
p68
s.