(dp0
S'code'
p1
S' Surround the highlighted area with code blocks (```)'
p2
sS'find_and_replace'
p3
S' Raise the find and replace window'
p4
sS'print_preview_markdown'
p5
S' Shows a preview of the markdown before printing'
p6
sS'save_all'
p7
S' Save all open documents'
p8
sS'redo'
p9
S' Redo the previous undo'
p10
sS'bold'
p11
S' Surround the highlighted area with strong emphasis (__)'
p12
sS'save_as'
p13
S' Save the current document with a specified name'
p14
sS'embed_image'
p15
S' Embed a given image as bytes'
p16
sS'export_pdf'
p17
S' Export the current document as a pdf file'
p18
sS'print_rendered_html'
p19
S' Prints the HTML output as it will be rendered by a browser'
p20
sS'select_all'
p21
S' Select all the text in the current document'
p22
sS'open_file'
p23
S' Open an existing document'
p24
sS'new_file'
p25
S' Start a new document'
p26
sS'link_image'
p27
S' Link to an image with the title of the surrounded area'
p28
sS'italic'
p29
S' Surround the highlighted area with emphasis (_)'
p30
sS'print_menu'
p31
S' Opens the printing menu'
p32
sS'configure'
p33
S' Configure the program'
p34
sS'print_preview_raw_html'
p35
S' Shows a preview of the raw HTML code output before printing'
p36
sS'image_menu'
p37
S' Opens a list of image options'
p38
sS'undo'
p39
S' Undo the previous change'
p40
sS'cut'
p41
S' Cut the highlighted area to the clipboard'
p42
sS'link'
p43
S' Insert a link with the link text of the surrounded area'
p44
sS'copy'
p45
S' Copy the highlighted area to the clipboard'
p46
sS'paste'
p47
S' Paste from the clipboard to the current cursor location'
p48
sS'set_colour'
p49
S' Set the colour of the highlighted area to this colour'
p50
sS'help_link'
p51
S' Opens the website for this product in your defualt browser'
p52
sS'close_file'
p53
S' Close the currently open document'
p54
sS'save_file'
p55
S' Save the current document'
p56
sS'print_preview_rendered_html'
p57
S' Shows a preview of the HTML output as it will be rendered by a browser before printing'
p58
sS'print_raw_html'
p59
S' Prints the raw HTML code output'
p60
sS'export_html'
p61
S' Export the current document as html'
p62
sS'print_markdown'
p63
S' Prints the markdown document'
p64
s.