(dp0
S'code'
p1
S' Code'
p2
sS'find_and_replace'
p3
S' Find and Replace'
p4
sS'other_options'
p5
S' Other Options'
p6
sS'print_preview_markdown'
p7
S' Print Preview Markdown'
p8
sS'update_available'
p9
S'There is an update available to download.'
p10
sS'saved'
p11
S' File saved'
p12
sS'file_not_created'
p13
S' File %s could not be created.'
p14
sS'cut'
p15
S' Cut'
p16
sS'print_rendered_html'
p17
S' Print Rendered HTML'
p18
sS'search_backwards'
p19
S' Search &backwards'
p20
sS'current_document'
p21
S' the current document'
p22
sS'create_file_option'
p23
S' Creates any new files passed to the executable.'
p24
sS'enter_link'
p25
S' Enter the destination URL'
p26
sS'made_changes'
p27
S' You have made changes to'
p28
sS'image_files_error_detail'
p29
S' Images should be found at %s'
p30
sS'add_to_dictionary'
p31
S' Add to dictionary'
p32
sS'set_font'
p33
S' Set Font'
p34
sS'print_preview_rendered_html'
p35
S' Print Preview Rendered HTML'
p36
sS'print_raw_html'
p37
S' Print Raw HTML Code'
p38
sS'css'
p39
S' CSS'
p40
sS'replace_all'
p41
S' Replace &all'
p42
sS'tools_menu'
p43
S' &Tools'
p44
sS'file_argument'
p45
S' Files to open in MarkdownEditor'
p46
sS'markdown_all'
p47
S' Markdown All'
p48
sS'close'
p49
S' Close'
p50
sS'show_line_numbers'
p51
S' Display Line Numbers'
p52
sS'replace_title'
p53
S' Replace'
p54
sS'embed_image'
p55
S' Embed a given image as bytes'
p56
sS'format_toolbar'
p57
S' Format Toolbar'
p58
sS'open_file'
p59
S' Open File'
p60
sS'replace_with'
p61
S' Replace with:'
p62
sS'style_name'
p63
S' Style Name'
p64
sS'print'
p65
S' Print'
p66
sS'file_toolbar'
p67
S' File Toolbar'
p68
sS'new_file'
p69
S' New File'
p70
sS'reset_user_conf_help'
p71
S' Remove all the user configuration file.'
p72
sS'change_font'
p73
S' Change Editor Font'
p74
sS'undo'
p75
S' Undo'
p76
sS'find_what'
p77
S' Find &what:'
p78
sS'github_flavoured_markdown'
p79
S' Github Flavoured Markdown'
p80
sS'program_name'
p81
S' MarkdownEditor'
p82
sS'paste'
p83
S' Paste'
p84
sS'find_title'
p85
S' Find'
p86
sS'save_file'
p87
S' Save'
p88
sS'edit_menu'
p89
S' &Edit'
p90
sS'program_description'
p91
S'This is a fully featured graphical editor for markdown.\\n\\nFor more information visit https://bitbucket.org/davidcorne/markdown-editor'
p92
sS'print_markdown'
p93
S'Print Markdown'
p94
sS'debug_options'
p95
S' Debug Options'
p96
sS'display_options'
p97
S' Display'
p98
sS'markdown'
p99
S' Markdown'
p100
sS'misc'
p101
S' Miscellaneous'
p102
sS'replace'
p103
S' &Replace'
p104
sS'match_case'
p105
S' Match &case'
p106
sS'redo'
p107
S' Redo'
p108
sS'save_as'
p109
S' Save As'
p110
sS'link_image'
p111
S' Insert a link to an external image'
p112
sS'file_menu'
p113
S' &File'
p114
sS'undo_redo_toolbar'
p115
S' Undo Redo Toolbar'
p116
sS'markdown_type'
p117
S' Markdown Type'
p118
sS'insert_link'
p119
S' Insert Link'
p120
sS'preview'
p121
S' Preview'
p122
sS'code_css_class'
p123
S' CSS class used for code.'
p124
sS'markdown_extra'
p125
S' Markdown Extra'
p126
sS'image_files_error'
p127
S' Image files not found.'
p128
sS'codehilite'
p129
S' CodeHilite'
p130
sS'copy'
p131
S' Copy'
p132
sS'user_interface_import_fail'
p133
S'There has been ar error in the user interface library loading.\\n\\nPlease report this at https://bitbucket.org/davidcorne/markdown-editor/issues'
p134
sS'exception'
p135
S' An internal error has occured.'
p136
sS'help_link'
p137
S' Markdown Editor On The Web'
p138
sS'close_file'
p139
S' Close File'
p140
sS'enter_image_title'
p141
S' Enter the image title (optional)'
p142
sS'export_html'
p143
S' Export HTML'
p144
sS'show_html'
p145
S' Show HTML'
p146
sS'file_not_found'
p147
S' File %s does not exist.'
p148
sS'browse_for_image'
p149
S' Browse for image'
p150
sS'save_all'
p151
S' Save All Files'
p152
sS'edit_toolbar'
p153
S' Edit Toolbar'
p154
sS'set_locale'
p155
S' Set locale'
p156
sS'save_changes?'
p157
S' Do you want to save your changes?'
p158
sS'export_pdf'
p159
S' Export PDF'
p160
sS'update_message'
p161
S'There is an update available to download from the <a href="https://bitbucket.org/davidcorne/markdown-editor-downloads/src/tip/setup.exe?at=default">download site</a>'
p162
sS'select_all'
p163
S' Select All'
p164
sS'match_whole_words'
p165
S' Match &whole words'
p166
sS'help_menu'
p167
S' &Help'
p168
sS'find'
p169
S' &Find'
p170
sS'log_file_location'
p171
S' Log file location'
p172
sS'enter_image_location'
p173
S' Enter the image location'
p174
sS'image_location'
p175
S' The image location'
p176
sS'print_preview_raw_html'
p177
S' Print Preview Raw HTML Code'
p178
sS'logging_file_location'
p179
S'Logging file is located at path:\\n\\n%s'
p180
sS'options'
p181
S' Options'
p182
s.