(dp0
S'code'
p1
S' Code'
p2
sS'find_and_replace'
p3
S' Find and Replace'
p4
sS'other_options'
p5
S' Other Options'
p6
sS'print_preview_markdown'
p7
S' Print Preview Markdown'
p8
sS'update_available'
p9
S'Update Available'
p10
sS'saved'
p11
S' File saved'
p12
sS'find'
p13
S' &Find'
p14
sS'cut'
p15
S' Cut'
p16
sS'print_rendered_html'
p17
S' Print Rendered HTML'
p18
sS'search_backwards'
p19
S' Search &backwards'
p20
sS'current_document'
p21
S' the current document'
p22
sS'enter_link'
p23
S' Enter the destination URL'
p24
sS'made_changes'
p25
S' You have made changes to'
p26
sS'image_files_error_detail'
p27
S' Images should be found at %s'
p28
sS'add_to_dictionary'
p29
S' Add to dictionary'
p30
sS'print_preview_rendered_html'
p31
S' Print Preview Rendered HTML'
p32
sS'print_raw_html'
p33
S' Print Raw HTML Code'
p34
sS'css'
p35
S' CSS'
p36
sS'replace_all'
p37
S' Replace &all'
p38
sS'tools_menu'
p39
S' &Tools'
p40
sS'file_argument'
p41
S' Files to open in MarkdownEditor'
p42
sS'markdown_all'
p43
S' Markdown All'
p44
sS'close'
p45
S' Close'
p46
sS'show_line_numbers'
p47
S' Display Line Numbers'
p48
sS'replace_title'
p49
S' Replace'
p50
sS'embed_image'
p51
S' Embed a given image as bytes'
p52
sS'format_toolbar'
p53
S' Format Toolbar'
p54
sS'open_file'
p55
S' Open File'
p56
sS'replace_with'
p57
S' Replace with:'
p58
sS'style_name'
p59
S' Style Name'
p60
sS'print'
p61
S' Print'
p62
sS'file_toolbar'
p63
S' File Toolbar'
p64
sS'new_file'
p65
S' New File'
p66
sS'reset_user_conf_help'
p67
S' Remove all the user configuration file.'
p68
sS'change_font'
p69
S' Change Editor Font'
p70
sS'undo'
p71
S' Undo'
p72
sS'find_what'
p73
S' Find &what:'
p74
sS'github_flavoured_markdown'
p75
S' Github Flavoured Markdown'
p76
sS'program_name'
p77
S' MarkdownEditor'
p78
sS'paste'
p79
S' Paste'
p80
sS'find_title'
p81
S' Find'
p82
sS'save_file'
p83
S' Save'
p84
sS'edit_menu'
p85
S' &Edit'
p86
sS'program_description'
p87
S'This is a fully featured graphical editor for markdown.\\n\\nFor more information visit https://bitbucket.org/davidcorne/markdown-editor'
p88
sS'options'
p89
S' Options'
p90
sS'debug_options'
p91
S' Debug Options'
p92
sS'display_options'
p93
S' Display'
p94
sS'markdown'
p95
S' Markdown'
p96
sS'misc'
p97
S' Miscellaneous'
p98
sS'replace'
p99
S' &Replace'
p100
sS'match_case'
p101
S' Match &case'
p102
sS'redo'
p103
S' Redo'
p104
sS'save_as'
p105
S' Save As'
p106
sS'link_image'
p107
S' Insert a link to an external image'
p108
sS'file_menu'
p109
S' &File'
p110
sS'undo_redo_toolbar'
p111
S' Undo Redo Toolbar'
p112
sS'markdown_type'
p113
S' Markdown Type'
p114
sS'insert_link'
p115
S' Insert Link'
p116
sS'preview'
p117
S' Preview'
p118
sS'code_css_class'
p119
S' CSS class used for code.'
p120
sS'markdown_extra'
p121
S' Markdown Extra'
p122
sS'image_files_error'
p123
S' Image files not found.'
p124
sS'codehilite'
p125
S' CodeHilite'
p126
sS'copy'
p127
S' Copy'
p128
sS'exception'
p129
S' An internal error has occured.'
p130
sS'help_link'
p131
S' Markdown Editor On The Web'
p132
sS'close_file'
p133
S' Close File'
p134
sS'enter_image_title'
p135
S' Enter the image title (optional)'
p136
sS'export_html'
p137
S' Export HTML'
p138
sS'show_html'
p139
S' Show HTML'
p140
sS'file_not_found'
p141
S' File %s does not exist.'
p142
sS'browse_for_image'
p143
S' Browse for image'
p144
sS'save_all'
p145
S' Save All Files'
p146
sS'edit_toolbar'
p147
S' Edit Toolbar'
p148
sS'save_changes?'
p149
S' Do you want to save your changes?'
p150
sS'export_pdf'
p151
S' Export PDF'
p152
sS'update_message'
p153
S'There is an update available to download from the <a href="https://bitbucket.org/davidcorne/markdown-editor-downloads/src/tip/setup.exe?at=default">download site</a>'
p154
sS'select_all'
p155
S' Select All'
p156
sS'match_whole_words'
p157
S' Match &whole words'
p158
sS'help_menu'
p159
S' &Help'
p160
sS'log_file_location'
p161
S' Log file location'
p162
sS'enter_image_location'
p163
S' Enter the image location'
p164
sS'change_language'
p165
S'Change Language'
p166
sS'print_preview_raw_html'
p167
S' Print Preview Raw HTML Code'
p168
sS'logging_file_location'
p169
S'Logging file is located at path:\\n\\n%s'
p170
sS'print_markdown'
p171
S'Print Markdown'
p172
sS'set_locale'
p173
S' Set locale'
p174
s.