(dp0
S'code'
p1
S' Code'
p2
sS'find_and_replace'
p3
S' Find and Replace'
p4
sS'other_options'
p5
S' Other Options'
p6
sS'print_preview_markdown'
p7
S' Print Preview Markdown'
p8
sS'update_available'
p9
S'Update Available'
p10
sS'saved'
p11
S' File saved'
p12
sS'find'
p13
S' &Find'
p14
sS'cut'
p15
S' Cut'
p16
sS'print_rendered_html'
p17
S' Print Rendered HTML'
p18
sS'search_backwards'
p19
S' Search &backwards'
p20
sS'current_document'
p21
S' the current document'
p22
sS'enter_link'
p23
S' Enter the destination URL'
p24
sS'made_changes'
p25
S' You have made changes to'
p26
sS'image_files_error_detail'
p27
S' Images should be found at %s'
p28
sS'command_line_mode_input'
p29
S'INPUT'
p30
sS'restart'
p31
S'Restart'
p32
sS'add_to_dictionary'
p33
S' Add to dictionary'
p34
sS'print_preview_rendered_html'
p35
S' Print Preview Rendered HTML'
p36
sS'print_raw_html'
p37
S' Print Raw HTML Code'
p38
sS'css'
p39
S' CSS'
p40
sS'replace_all'
p41
S' Replace &all'
p42
sS'tools_menu'
p43
S' &Tools'
p44
sS'file_argument'
p45
S' Files to open in MarkdownEditor'
p46
sS'markdown_all'
p47
S' Markdown All'
p48
sS'close'
p49
S' Close'
p50
sS'show_line_numbers'
p51
S' Display Line Numbers'
p52
sS'replace_title'
p53
S' Replace'
p54
sS'command_line_mode'
p55
S'Runs the command line mode parses markdown INPUT to html OUTPUT.'
p56
sS'embed_image'
p57
S' Embed a given image as bytes'
p58
sS'format_toolbar'
p59
S' Format Toolbar'
p60
sS'open_file'
p61
S' Open File'
p62
sS'restart_effect'
p63
S'You must restart this appliction for the change to take full effect.'
p64
sS'replace_with'
p65
S' Replace with:'
p66
sS'style_name'
p67
S' Style Name'
p68
sS'print'
p69
S' Print'
p70
sS'file_toolbar'
p71
S' File Toolbar'
p72
sS'new_file'
p73
S' New File'
p74
sS'reset_user_conf_help'
p75
S' Remove all the user configuration file.'
p76
sS'change_font'
p77
S' Change Editor Font'
p78
sS'undo'
p79
S' Undo'
p80
sS'find_what'
p81
S' Find &what:'
p82
sS'github_flavoured_markdown'
p83
S' Github Flavoured Markdown'
p84
sS'program_name'
p85
S' MarkdownEditor'
p86
sS'paste'
p87
S' Paste'
p88
sS'find_title'
p89
S' Find'
p90
sS'save_file'
p91
S' Save'
p92
sS'edit_menu'
p93
S' &Edit'
p94
sS'program_description'
p95
S'This is a fully featured graphical editor for markdown.\\n\\nFor more information visit https://bitbucket.org/davidcorne/markdown-editor'
p96
sS'options'
p97
S' Options'
p98
sS'debug_options'
p99
S' Debug Options'
p100
sS'display_options'
p101
S' Display'
p102
sS'markdown'
p103
S' Markdown'
p104
sS'misc'
p105
S' Miscellaneous'
p106
sS'replace'
p107
S' &Replace'
p108
sS'match_case'
p109
S' Match &case'
p110
sS'redo'
p111
S' Redo'
p112
sS'save_as'
p113
S' Save As'
p114
sS'link_image'
p115
S' Insert a link to an external image'
p116
sS'file_menu'
p117
S' &File'
p118
sS'undo_redo_toolbar'
p119
S' Undo Redo Toolbar'
p120
sS'markdown_type'
p121
S' Markdown Type'
p122
sS'insert_link'
p123
S' Insert Link'
p124
sS'preview'
p125
S' Preview'
p126
sS'code_css_class'
p127
S' CSS class used for code.'
p128
sS'markdown_extra'
p129
S' Markdown Extra'
p130
sS'image_files_error'
p131
S' Image files not found.'
p132
sS'codehilite'
p133
S' CodeHilite'
p134
sS'copy'
p135
S' Copy'
p136
sS'exception'
p137
S' An internal error has occured.'
p138
sS'help_link'
p139
S' Markdown Editor On The Web'
p140
sS'close_file'
p141
S' Close File'
p142
sS'enter_image_title'
p143
S' Enter the image title (optional)'
p144
sS'export_html'
p145
S' Export HTML'
p146
sS'show_html'
p147
S' Show HTML'
p148
sS'file_not_found'
p149
S' File %s does not exist.'
p150
sS'browse_for_image'
p151
S' Browse for image'
p152
sS'save_all'
p153
S' Save All Files'
p154
sS'edit_toolbar'
p155
S' Edit Toolbar'
p156
sS'save_changes?'
p157
S' Do you want to save your changes?'
p158
sS'export_pdf'
p159
S' Export PDF'
p160
sS'update_message'
p161
S'There is an update available to download from the <a href="https://bitbucket.org/davidcorne/markdown-editor-downloads/src/tip/setup.exe?at=default">download site</a>'
p162
sS'select_all'
p163
S' Select All'
p164
sS'match_whole_words'
p165
S' Match &whole words'
p166
sS'help_menu'
p167
S' &Help'
p168
sS'log_file_location'
p169
S' Log file location'
p170
sS'enter_image_location'
p171
S' Enter the image location'
p172
sS'change_language'
p173
S'Change Language'
p174
sS'print_preview_raw_html'
p175
S' Print Preview Raw HTML Code'
p176
sS'logging_file_location'
p177
S'Logging file is located at path:\\n\\n%s'
p178
sS'print_markdown'
p179
S'Print Markdown'
p180
sS'command_line_mode_output'
p181
S'OUTPUT'
p182
sS'set_locale'
p183
S' Set locale'
p184
s.