(dp0
S'code'
p1
S'en_US'
p2
sS'find_and_replace'
p3
S'en_US'
p4
sS'print_preview_markdown'
p5
S'en_US'
p6
sS'save_all'
p7
S'en_US'
p8
sS'redo'
p9
S'en_US'
p10
sS'bold'
p11
S'en_US'
p12
sS'save_as'
p13
S'en_US'
p14
sS'embed_image'
p15
S'en_US'
p16
sS'export_pdf'
p17
S'en_US'
p18
sS'print_rendered_html'
p19
S'en_US'
p20
sS'select_all'
p21
S'en_US'
p22
sS'open_file'
p23
S'en_US'
p24
sS'new_file'
p25
S'en_US'
p26
sS'link_image'
p27
S'en_US'
p28
sS'italic'
p29
S'en_US'
p30
sS'print_menu'
p31
S'en_US'
p32
sS'configure'
p33
S'en_US'
p34
sS'print_preview_raw_html'
p35
S'en_US'
p36
sS'image_menu'
p37
S'en_US'
p38
sS'undo'
p39
S'en_US'
p40
sS'cut'
p41
S'en_US'
p42
sS'link'
p43
S'en_US'
p44
sS'copy'
p45
S'en_US'
p46
sS'paste'
p47
S'en_US'
p48
sS'set_colour'
p49
S'en_US'
p50
sS'help_link'
p51
S'en_US'
p52
sS'close_file'
p53
S'en_US'
p54
sS'save_file'
p55
S'en_US'
p56
sS'print_preview_rendered_html'
p57
S'en_US'
p58
sS'print_raw_html'
p59
S'en_US'
p60
sS'export_html'
p61
S'en_US'
p62
sS'print_markdown'
p63
S'en_US'
p64
s.