(dp0
S'code'
p1
S'en_US'
p2
sS'find_and_replace'
p3
S'en_US'
p4
sS'other_options'
p5
S'en_US'
p6
sS'print_preview_markdown'
p7
S'en_US'
p8
sS'update_available'
p9
S'en_US'
p10
sS'saved'
p11
S'en_US'
p12
sS'file_not_created'
p13
S'en_US'
p14
sS'cut'
p15
S'en_US'
p16
sS'print_rendered_html'
p17
S'en_US'
p18
sS'search_backwards'
p19
S'en_US'
p20
sS'current_document'
p21
S'en_US'
p22
sS'create_file_option'
p23
S'en_US'
p24
sS'enter_link'
p25
S'en_US'
p26
sS'made_changes'
p27
S'en_US'
p28
sS'image_files_error_detail'
p29
S'en_US'
p30
sS'add_to_dictionary'
p31
S'en_US'
p32
sS'set_font'
p33
S'en_US'
p34
sS'print_preview_rendered_html'
p35
S'en_US'
p36
sS'print_raw_html'
p37
S'en_US'
p38
sS'css'
p39
S'en_US'
p40
sS'replace_all'
p41
S'en_US'
p42
sS'tools_menu'
p43
S'en_US'
p44
sS'file_argument'
p45
S'en_US'
p46
sS'markdown_all'
p47
S'en_US'
p48
sS'close'
p49
S'en_US'
p50
sS'show_line_numbers'
p51
S'en_US'
p52
sS'replace_title'
p53
S'en_US'
p54
sS'embed_image'
p55
S'en_US'
p56
sS'format_toolbar'
p57
S'en_US'
p58
sS'open_file'
p59
S'en_US'
p60
sS'replace_with'
p61
S'en_US'
p62
sS'style_name'
p63
S'en_US'
p64
sS'print'
p65
S'en_US'
p66
sS'file_toolbar'
p67
S'en_US'
p68
sS'new_file'
p69
S'en_US'
p70
sS'reset_user_conf_help'
p71
S'en_US'
p72
sS'change_font'
p73
S'en_US'
p74
sS'undo'
p75
S'en_US'
p76
sS'find_what'
p77
S'en_US'
p78
sS'github_flavoured_markdown'
p79
S'en_US'
p80
sS'program_name'
p81
S'en_US'
p82
sS'paste'
p83
S'en_US'
p84
sS'find_title'
p85
S'en_US'
p86
sS'save_file'
p87
S'en_US'
p88
sS'edit_menu'
p89
S'en_US'
p90
sS'program_description'
p91
S'en_US'
p92
sS'print_markdown'
p93
S'en_US'
p94
sS'debug_options'
p95
S'en_US'
p96
sS'display_options'
p97
S'en_US'
p98
sS'markdown'
p99
S'en_US'
p100
sS'misc'
p101
S'en_US'
p102
sS'replace'
p103
S'en_US'
p104
sS'match_case'
p105
S'en_US'
p106
sS'redo'
p107
S'en_US'
p108
sS'save_as'
p109
S'en_US'
p110
sS'link_image'
p111
S'en_US'
p112
sS'file_menu'
p113
S'en_US'
p114
sS'undo_redo_toolbar'
p115
S'en_US'
p116
sS'markdown_type'
p117
S'en_US'
p118
sS'insert_link'
p119
S'en_US'
p120
sS'preview'
p121
S'en_US'
p122
sS'code_css_class'
p123
S'en_US'
p124
sS'markdown_extra'
p125
S'en_US'
p126
sS'image_files_error'
p127
S'en_US'
p128
sS'codehilite'
p129
S'en_US'
p130
sS'copy'
p131
S'en_US'
p132
sS'user_interface_import_fail'
p133
S'en_US'
p134
sS'exception'
p135
S'en_US'
p136
sS'help_link'
p137
S'en_US'
p138
sS'close_file'
p139
S'en_US'
p140
sS'enter_image_title'
p141
S'en_US'
p142
sS'export_html'
p143
S'en_US'
p144
sS'show_html'
p145
S'en_US'
p146
sS'file_not_found'
p147
S'en_US'
p148
sS'browse_for_image'
p149
S'en_US'
p150
sS'save_all'
p151
S'en_US'
p152
sS'edit_toolbar'
p153
S'en_US'
p154
sS'set_locale'
p155
S'en_US'
p156
sS'save_changes?'
p157
S'en_US'
p158
sS'export_pdf'
p159
S'en_US'
p160
sS'update_message'
p161
S'en_US'
p162
sS'select_all'
p163
S'en_US'
p164
sS'match_whole_words'
p165
S'en_US'
p166
sS'help_menu'
p167
S'en_US'
p168
sS'find'
p169
S'en_US'
p170
sS'log_file_location'
p171
S'en_US'
p172
sS'enter_image_location'
p173
S'en_US'
p174
sS'image_location'
p175
S'en_US'
p176
sS'print_preview_raw_html'
p177
S'en_US'
p178
sS'logging_file_location'
p179
S'en_US'
p180
sS'options'
p181
S'en_US'
p182
s.