(dp0
Vdisplay_line_numbers
p1
I00
sVcode_css_class
p2
Vhighlight
p3
sVcode_css
p4
V
p5
sVmarkdown_css
p6
g5
sVfont
p7
VArial,12,-1,5,50,0,0,0,0,0
p8
sVshow_html
p9
I00
sVprocessor
p10
Vmarkdown_all
p11
s.